target datalayout = "e-m:e-p270:32:32-p271:32:32-p272:64:64-i64:64-i128:128-f80:128-n8:16:32:64-S128"
target triple = "x86_64-pc-linux-gnu"

%class.rational = type { %class.mpq }
%class.mpq = type { %class.mpz, %class.mpz }
%class.mpz = type { i32, i8, ptr }
%"class.lp::int_solver" = type { ptr, ptr, ptr, %class.vector }
%class.vector = type { ptr }
%"class.lp::lar_solver" = type { %"class.lp::column_namer", %class.trail_stack, %"struct.lp::lp_settings", i32, %class.stacked_value, i32, ptr, %"class.lp::lar_core_solver", ptr, i8, %"class.lp::var_register", %class.svector.45, %"class.lp::constraint_set", %class.indexed_uint_set, %class.indexed_uint_set, %class.svector, %class.scoped_dependency_manager, %class.svector, %class.indexed_uint_set, %class.indexed_uint_set, %class.svector, %class.vector.51, %"class.lp::indexed_vector", %"class.std::unordered_map.52", %"class.lp::stacked_vector.27", %class.map, %class.map, %class.indexed_uint_set, i8, %"class.std::unordered_set", %"class.std::unordered_set.86", %class.rational, %"class.std::function", %"class.std::function.105", %"class.std::function", %"class.std::function.108" }
%"class.lp::column_namer" = type { ptr }
%class.trail_stack = type { %class.ptr_vector, %class.svector, %class.region }
%class.ptr_vector = type { %class.vector.0 }
%class.vector.0 = type { ptr }
%class.region = type { ptr, ptr, ptr, ptr, ptr }
%"struct.lp::lp_settings" = type <{ %"class.lp::lp_settings::default_lp_resource_limit", ptr, ptr, ptr, %"struct.lp::statistics", %class.random_gen, i32, i32, i32, i8, [3 x i8], i32, i8, [3 x i8], i32, double, i8, i8, [2 x i8], i32, i32, i8, [3 x i8], i32, i8, [3 x i8], i32, i8, [3 x i8], i32, i32, i32, i32, i32, i8, [3 x i8], i32, i32, i32, i8, i8, i8, i8, i8, i8, [2 x i8], i32, i32, [4 x i8] }>
%"class.lp::lp_settings::default_lp_resource_limit" = type { %"class.lp::lp_resource_limit", ptr, %class.stopwatch }
%"class.lp::lp_resource_limit" = type { ptr }
%class.stopwatch = type <{ %"class.std::chrono::time_point", %"class.std::chrono::duration", i8, [7 x i8] }>
%"class.std::chrono::time_point" = type { %"class.std::chrono::duration" }
%"class.std::chrono::duration" = type { i64 }
%"struct.lp::statistics" = type { i32, i32, i32, i32, i32, i32, i32, i32, i32, i32, i32, i32, i32, i32, i32, i32, i32, i32, i32, i32, i32, i32, i32, i32, i32, i32, i32, i32, i32, i32, i32, i32, i32, i32, i32, i32, i32, i32, i32, i32, i32, i32, i32, %class.statistics }
%class.statistics = type { %class.svector.2, %class.svector.4 }
%class.svector.2 = type { %class.vector.3 }
%class.vector.3 = type { ptr }
%class.svector.4 = type { %class.vector.5 }
%class.vector.5 = type { ptr }
%class.random_gen = type { i32 }
%class.stacked_value = type { i32, %class.vector.6 }
%class.vector.6 = type { ptr }
%"class.lp::lar_core_solver" = type { %class.vector.7, i32, %class.vector.8, %class.vector.9, %class.stacked_value, %class.vector.8, %class.vector.8, %"class.lp::stacked_vector", %"class.lp::stacked_vector.12", %"class.lp::stacked_vector.12", %"class.lp::static_matrix", %"class.lp::stacked_vector.27", %class.vector.29, %class.vector.29, %"class.std::vector.30", %"class.lp::lp_primal_core_solver" }
%class.vector.7 = type { ptr }
%class.vector.9 = type { ptr }
%class.vector.8 = type { ptr }
%"class.lp::stacked_vector" = type { %class.svector, %class.svector, %class.vector.10, %class.vector.11, %class.svector }
%class.vector.10 = type { ptr }
%class.vector.11 = type { ptr }
%"class.lp::stacked_vector.12" = type { %class.svector, %class.svector, %class.vector.13, %class.vector.8, %class.svector }
%class.vector.13 = type { ptr }
%"class.lp::static_matrix" = type { %"class.std::stack", %class.vector.14, %"class.lp::indexed_vector", %"class.std::vector.19", %"class.std::vector.23" }
%"class.std::stack" = type { %"class.std::deque" }
%"class.std::deque" = type { %"class.std::_Deque_base" }
%"class.std::_Deque_base" = type { %"struct.std::_Deque_base<lp::static_matrix<rational, lp::numeric_pair<rational>>::dim, std::allocator<lp::static_matrix<rational, lp::numeric_pair<rational>>::dim>>::_Deque_impl" }
%"struct.std::_Deque_base<lp::static_matrix<rational, lp::numeric_pair<rational>>::dim, std::allocator<lp::static_matrix<rational, lp::numeric_pair<rational>>::dim>>::_Deque_impl" = type { %"struct.std::_Deque_base<lp::static_matrix<rational, lp::numeric_pair<rational>>::dim, std::allocator<lp::static_matrix<rational, lp::numeric_pair<rational>>::dim>>::_Deque_impl_data" }
%"struct.std::_Deque_base<lp::static_matrix<rational, lp::numeric_pair<rational>>::dim, std::allocator<lp::static_matrix<rational, lp::numeric_pair<rational>>::dim>>::_Deque_impl_data" = type { ptr, i64, %"struct.std::_Deque_iterator", %"struct.std::_Deque_iterator" }
%"struct.std::_Deque_iterator" = type { ptr, ptr, ptr, ptr }
%class.vector.14 = type { ptr }
%"class.std::vector.19" = type { %"struct.std::_Vector_base.20" }
%"struct.std::_Vector_base.20" = type { %"struct.std::_Vector_base<std::vector<lp::row_cell<rational>, std_allocator<lp::row_cell<rational>>>, std_allocator<std::vector<lp::row_cell<rational>, std_allocator<lp::row_cell<rational>>>>>::_Vector_impl" }
%"struct.std::_Vector_base<std::vector<lp::row_cell<rational>, std_allocator<lp::row_cell<rational>>>, std_allocator<std::vector<lp::row_cell<rational>, std_allocator<lp::row_cell<rational>>>>>::_Vector_impl" = type { %"struct.std::_Vector_base<std::vector<lp::row_cell<rational>, std_allocator<lp::row_cell<rational>>>, std_allocator<std::vector<lp::row_cell<rational>, std_allocator<lp::row_cell<rational>>>>>::_Vector_impl_data" }
%"struct.std::_Vector_base<std::vector<lp::row_cell<rational>, std_allocator<lp::row_cell<rational>>>, std_allocator<std::vector<lp::row_cell<rational>, std_allocator<lp::row_cell<rational>>>>>::_Vector_impl_data" = type { ptr, ptr, ptr }
%"class.std::vector.23" = type { %"struct.std::_Vector_base.24" }
%"struct.std::_Vector_base.24" = type { %"struct.std::_Vector_base<std::vector<lp::row_cell<lp::empty_struct>, std_allocator<lp::row_cell<lp::empty_struct>>>, std_allocator<std::vector<lp::row_cell<lp::empty_struct>, std_allocator<lp::row_cell<lp::empty_struct>>>>>::_Vector_impl" }
%"struct.std::_Vector_base<std::vector<lp::row_cell<lp::empty_struct>, std_allocator<lp::row_cell<lp::empty_struct>>>, std_allocator<std::vector<lp::row_cell<lp::empty_struct>, std_allocator<lp::row_cell<lp::empty_struct>>>>>::_Vector_impl" = type { %"struct.std::_Vector_base<std::vector<lp::row_cell<lp::empty_struct>, std_allocator<lp::row_cell<lp::empty_struct>>>, std_allocator<std::vector<lp::row_cell<lp::empty_struct>, std_allocator<lp::row_cell<lp::empty_struct>>>>>::_Vector_impl_data" }
%"struct.std::_Vector_base<std::vector<lp::row_cell<lp::empty_struct>, std_allocator<lp::row_cell<lp::empty_struct>>>, std_allocator<std::vector<lp::row_cell<lp::empty_struct>, std_allocator<lp::row_cell<lp::empty_struct>>>>>::_Vector_impl_data" = type { ptr, ptr, ptr }
%class.vector.29 = type { ptr }
%"class.std::vector.30" = type { %"struct.std::_Vector_base.31" }
%"struct.std::_Vector_base.31" = type { %"struct.std::_Vector_base<int, std_allocator<int>>::_Vector_impl" }
%"struct.std::_Vector_base<int, std_allocator<int>>::_Vector_impl" = type { %"struct.std::_Vector_base<int, std_allocator<int>>::_Vector_impl_data" }
%"struct.std::_Vector_base<int, std_allocator<int>>::_Vector_impl_data" = type { ptr, ptr, ptr }
%"class.lp::lp_primal_core_solver" = type { %"class.lp::lp_core_solver_base.base", i32, %class.vector.9, i32, i8, %class.indexed_uint_set, i32, i32, %class.vector.29, %"class.std::__cxx11::list" }
%"class.lp::lp_core_solver_base.base" = type <{ ptr, i32, i32, i32, [4 x i8], %class.heap, %"class.lp::indexed_vector", ptr, ptr, ptr, ptr, ptr, ptr, ptr, ptr, %class.vector.9, ptr, ptr, ptr, i32, [4 x i8], %class.vector.29, i8, [7 x i8], ptr, i8 }>
%class.heap = type { %class.svector.34, %class.svector.34 }
%class.svector.34 = type { %class.vector.35 }
%class.vector.35 = type { ptr }
%"class.std::__cxx11::list" = type { %"class.std::__cxx11::_List_base" }
%"class.std::__cxx11::_List_base" = type { %"struct.std::__cxx11::_List_base<unsigned int, std::allocator<unsigned int>>::_List_impl" }
%"struct.std::__cxx11::_List_base<unsigned int, std::allocator<unsigned int>>::_List_impl" = type { %"struct.std::__detail::_List_node_header" }
%"struct.std::__detail::_List_node_header" = type { %"struct.std::__detail::_List_node_base", i64 }
%"struct.std::__detail::_List_node_base" = type { ptr, ptr }
%"class.lp::var_register" = type { %class.vector.39, %"class.std::unordered_map" }
%class.vector.39 = type { ptr }
%"class.std::unordered_map" = type { %"class.std::_Hashtable" }
%"class.std::_Hashtable" = type { ptr, i64, %"struct.std::__detail::_Hash_node_base", i64, %"struct.std::__detail::_Prime_rehash_policy", ptr }
%"struct.std::__detail::_Hash_node_base" = type { ptr }
%"struct.std::__detail::_Prime_rehash_policy" = type { float, i64 }
%class.svector.45 = type { %class.vector.46 }
%class.vector.46 = type { ptr }
%"class.lp::constraint_set" = type { %class.region, ptr, ptr, %class.vector.47, %class.stacked_value.48, %class.svector, %class.stacked_value.48 }
%class.vector.47 = type { ptr }
%class.stacked_value.48 = type { i32, %class.vector.29 }
%class.scoped_dependency_manager = type { [8 x i8], %"class.scoped_dependency_manager<unsigned int>::config::allocator", %class.dependency_manager }
%"class.scoped_dependency_manager<unsigned int>::config::allocator" = type { %class.region }
%class.dependency_manager = type { ptr, ptr, %class.ptr_vector.49 }
%class.ptr_vector.49 = type { %class.vector.50 }
%class.vector.50 = type { ptr }
%class.svector = type { %class.vector.1 }
%class.vector.1 = type { ptr }
%class.vector.51 = type { ptr }
%"class.lp::indexed_vector" = type { %"class.std::vector", %"class.std::vector.15" }
%"class.std::vector" = type { %"struct.std::_Vector_base" }
%"struct.std::_Vector_base" = type { %"struct.std::_Vector_base<rational, std_allocator<rational>>::_Vector_impl" }
%"struct.std::_Vector_base<rational, std_allocator<rational>>::_Vector_impl" = type { %"struct.std::_Vector_base<rational, std_allocator<rational>>::_Vector_impl_data" }
%"struct.std::_Vector_base<rational, std_allocator<rational>>::_Vector_impl_data" = type { ptr, ptr, ptr }
%"class.std::vector.15" = type { %"struct.std::_Vector_base.16" }
%"struct.std::_Vector_base.16" = type { %"struct.std::_Vector_base<unsigned int, std_allocator<unsigned int>>::_Vector_impl" }
%"struct.std::_Vector_base<unsigned int, std_allocator<unsigned int>>::_Vector_impl" = type { %"struct.std::_Vector_base<unsigned int, std_allocator<unsigned int>>::_Vector_impl_data" }
%"struct.std::_Vector_base<unsigned int, std_allocator<unsigned int>>::_Vector_impl_data" = type { ptr, ptr, ptr }
%"class.std::unordered_map.52" = type { %"class.std::_Hashtable.53" }
%"class.std::_Hashtable.53" = type { ptr, i64, %"struct.std::__detail::_Hash_node_base", i64, %"struct.std::__detail::_Prime_rehash_policy", ptr }
%"class.lp::stacked_vector.27" = type { %class.svector, %class.svector, %class.vector.28, %class.vector.29, %class.svector }
%class.vector.28 = type { ptr }
%class.map = type { %class.table2map }
%class.table2map = type { %class.core_hashtable }
%class.core_hashtable = type <{ ptr, i32, i32, i32, [4 x i8] }>
%class.indexed_uint_set = type { i32, %class.svector, %class.svector }
%"class.std::unordered_set" = type { %"class.std::_Hashtable.68" }
%"class.std::_Hashtable.68" = type { ptr, i64, %"struct.std::__detail::_Hash_node_base", i64, %"struct.std::__detail::_Prime_rehash_policy", ptr }
%"class.std::unordered_set.86" = type { %"class.std::_Hashtable.87" }
%"class.std::_Hashtable.87" = type { ptr, i64, %"struct.std::__detail::_Hash_node_base", i64, %"struct.std::__detail::_Prime_rehash_policy", ptr }
%"class.std::function.105" = type { %"class.std::_Function_base", ptr }
%"class.std::_Function_base" = type { %"union.std::_Any_data", ptr }
%"union.std::_Any_data" = type { %"union.std::_Nocopy_types" }
%"union.std::_Nocopy_types" = type { { i64, i64 } }
%"class.std::function" = type { %"class.std::_Function_base", ptr }
%"class.std::function.108" = type { %"class.std::_Function_base", ptr }
%"class.lp::column" = type { ptr, ptr, ptr }

; Function Attrs: mustprogress nounwind uwtable
define linkonce_odr hidden noundef ptr @_ZNK2lp6column4termEv(ptr noundef nonnull align 8 dereferenceable(24) %0) #4 comdat align 2 {
  %2 = alloca ptr, align 8
  store ptr %0, ptr %2, align 8, !tbaa !490
  %3 = load ptr, ptr %2, align 8
  %4 = getelementptr inbounds nuw %"class.lp::column", ptr %3, i32 0, i32 2
  %5 = load ptr, ptr %4, align 8, !tbaa !494
  ret ptr %5
}

; Function Attrs: mustprogress nounwind uwtable
define linkonce_odr hidden noundef nonnull align 8 dereferenceable(24) ptr @_ZNK6vectorIN2lp6columnELb0EjEixEj(ptr noundef nonnull align 8 dereferenceable(8) %0, i32 noundef %1) #4 comdat align 2 {
  %3 = alloca ptr, align 8
  %4 = alloca i32, align 4
  store ptr %0, ptr %3, align 8, !tbaa !487
  store i32 %1, ptr %4, align 4, !tbaa !8
  %5 = load ptr, ptr %3, align 8
  %6 = getelementptr inbounds nuw %class.vector.46, ptr %5, i32 0, i32 0
  %7 = load ptr, ptr %6, align 8, !tbaa !489
  %8 = load i32, ptr %4, align 4, !tbaa !8
  %9 = zext i32 %8 to i64
  %10 = getelementptr inbounds nuw %"class.lp::column", ptr %7, i64 %9
  ret ptr %10
}

; Function Attrs: inlinehint mustprogress uwtable
define linkonce_odr hidden noundef zeroext i1 @_ZNK2lp10lar_solver15column_has_termEj(ptr noundef nonnull align 8 dereferenceable(2128) %0, i32 noundef %1) #7 comdat align 2 {
  %3 = alloca ptr, align 8
  %4 = alloca i32, align 4
  store ptr %0, ptr %3, align 8, !tbaa !22
  store i32 %1, ptr %4, align 4, !tbaa !8
  %5 = load ptr, ptr %3, align 8
  %6 = getelementptr inbounds nuw %"class.lp::lar_solver", ptr %5, i32 0, i32 11
  %7 = load i32, ptr %4, align 4, !tbaa !8
  %8 = call noundef nonnull align 8 dereferenceable(24) ptr @_ZNK6vectorIN2lp6columnELb0EjEixEj(ptr noundef nonnull align 8 dereferenceable(8) %6, i32 noundef %7)
  %9 = call noundef ptr @_ZNK2lp6column4termEv(ptr noundef nonnull align 8 dereferenceable(24) %8)
  %10 = icmp ne ptr %9, null
  ret i1 %10
}

; Function Attrs: mustprogress uwtable
define hidden noundef zeroext i1 @_ZNK2lp10int_solver7is_termEj(ptr noundef nonnull align 8 dereferenceable(32) %0, i32 noundef %1) #6 align 2 {
  %3 = alloca ptr, align 8
  %4 = alloca i32, align 4
  store ptr %0, ptr %3, align 8, !tbaa !20
  store i32 %1, ptr %4, align 4, !tbaa !8
  %5 = load ptr, ptr %3, align 8
  %6 = getelementptr inbounds nuw %"class.lp::int_solver", ptr %5, i32 0, i32 0
  %7 = load ptr, ptr %6, align 8, !tbaa !24
  %8 = load i32, ptr %4, align 4, !tbaa !8
  %9 = call noundef zeroext i1 @_ZNK2lp10lar_solver15column_has_termEj(ptr noundef nonnull align 8 dereferenceable(2128) %7, i32 noundef %8)
  ret i1 %9
}