; Function Attrs: mustprogress nofree norecurse nosync nounwind willreturn memory(read, inaccessiblemem: none) uwtable
define hidden noundef zeroext i1 @_ZNK2lp10int_solver7is_termEj(ptr noundef nonnull readonly align 8 captures(none) dereferenceable(32) %0, i32 noundef %1) local_unnamed_addr #9 align 2 {
  %3 = load ptr, ptr %0, align 8, !tbaa !43
  %4 = getelementptr inbounds nuw i8, ptr %3, i64 1320
  %5 = load ptr, ptr %4, align 8, !tbaa !276
  %6 = zext i32 %1 to i64
  %7 = getelementptr inbounds nuw %"class.lp::column", ptr %5, i64 %6, i32 2
  %8 = load ptr, ptr %7, align 8, !tbaa !281
  %9 = icmp ne ptr %8, null
  ret i1 %9
}